target datalayout = "e-m:e-p270:32:32-p271:32:32-p272:64:64-i64:64-i128:128-f80:128-n8:16:32:64-S128"
target triple = "x86_64-pc-linux-gnu"

%struct.prte_hwloc_print_buffers_t = type { [16 x ptr], i32 }

@.str.30 = private unnamed_addr constant [5 x i8] c"NONE\00", align 1
@.str.35 = private unnamed_addr constant [8 x i8] c"PACKAGE\00", align 1
@.str.36 = private unnamed_addr constant [5 x i8] c"NUMA\00", align 1
@.str.37 = private unnamed_addr constant [8 x i8] c"L3CACHE\00", align 1
@.str.38 = private unnamed_addr constant [8 x i8] c"L2CACHE\00", align 1
@.str.39 = private unnamed_addr constant [8 x i8] c"L1CACHE\00", align 1
@.str.40 = private unnamed_addr constant [5 x i8] c"CORE\00", align 1
@.str.41 = private unnamed_addr constant [9 x i8] c"HWTHREAD\00", align 1
@.str.42 = private unnamed_addr constant [8 x i8] c"UNKNOWN\00", align 1
@prte_hwloc_print_null = external global ptr, align 8
@.str.43 = private unnamed_addr constant [33 x i8] c"%s:IF-SUPPORTED:OVERLOAD-ALLOWED\00", align 1
@.str.44 = private unnamed_addr constant [20 x i8] c"%s:OVERLOAD-ALLOWED\00", align 1
@.str.45 = private unnamed_addr constant [16 x i8] c"%s:IF-SUPPORTED\00", align 1
@.str.46 = private unnamed_addr constant [3 x i8] c"%s\00", align 1

; Function Attrs: nounwind uwtable
define ptr @prte_hwloc_base_print_binding(i16 noundef zeroext %0) #0 {
  %2 = alloca ptr, align 8
  %3 = alloca i16, align 2
  %4 = alloca ptr, align 8
  %5 = alloca ptr, align 8
  %6 = alloca ptr, align 8
  %7 = alloca i32, align 4
  store i16 %0, ptr %3, align 2, !tbaa !109
  call void @llvm.lifetime.start.p0(i64 8, ptr %4) #10
  call void @llvm.lifetime.start.p0(i64 8, ptr %5) #10
  call void @llvm.lifetime.start.p0(i64 8, ptr %6) #10
  %8 = load i16, ptr %3, align 2, !tbaa !109
  %9 = zext i16 %8 to i32
  %10 = and i32 %9, 255
  switch i32 %10, label %19 [
    i32 1, label %11
    i32 2, label %12
    i32 3, label %13
    i32 4, label %14
    i32 5, label %15
    i32 6, label %16
    i32 7, label %17
    i32 8, label %18
  ]

11:                                               ; preds = %1
  store ptr @.str.30, ptr %5, align 8, !tbaa !26
  br label %20

12:                                               ; preds = %1
  store ptr @.str.35, ptr %5, align 8, !tbaa !26
  br label %20

13:                                               ; preds = %1
  store ptr @.str.36, ptr %5, align 8, !tbaa !26
  br label %20

14:                                               ; preds = %1
  store ptr @.str.37, ptr %5, align 8, !tbaa !26
  br label %20

15:                                               ; preds = %1
  store ptr @.str.38, ptr %5, align 8, !tbaa !26
  br label %20

16:                                               ; preds = %1
  store ptr @.str.39, ptr %5, align 8, !tbaa !26
  br label %20

17:                                               ; preds = %1
  store ptr @.str.40, ptr %5, align 8, !tbaa !26
  br label %20

18:                                               ; preds = %1
  store ptr @.str.41, ptr %5, align 8, !tbaa !26
  br label %20

19:                                               ; preds = %1
  store ptr @.str.42, ptr %5, align 8, !tbaa !26
  br label %20

20:                                               ; preds = %19, %18, %17, %16, %15, %14, %13, %12, %11
  %21 = call ptr @prte_hwloc_get_print_buffer()
  store ptr %21, ptr %6, align 8, !tbaa !34
  %22 = load ptr, ptr %6, align 8, !tbaa !34
  %23 = icmp eq ptr null, %22
  br i1 %23, label %24, label %26

24:                                               ; preds = %20
  %25 = load ptr, ptr @prte_hwloc_print_null, align 8, !tbaa !26
  store ptr %25, ptr %2, align 8
  store i32 1, ptr %7, align 4
  br label %114

26:                                               ; preds = %20
  %27 = load ptr, ptr %6, align 8, !tbaa !34
  %28 = getelementptr inbounds nuw %struct.prte_hwloc_print_buffers_t, ptr %27, i32 0, i32 1
  %29 = load i32, ptr %28, align 8, !tbaa !122
  %30 = icmp eq i32 16, %29
  br i1 %30, label %31, label %34

31:                                               ; preds = %26
  %32 = load ptr, ptr %6, align 8, !tbaa !34
  %33 = getelementptr inbounds nuw %struct.prte_hwloc_print_buffers_t, ptr %32, i32 0, i32 1
  store i32 0, ptr %33, align 8, !tbaa !122
  br label %34

34:                                               ; preds = %31, %26
  %35 = load i16, ptr %3, align 2, !tbaa !109
  %36 = zext i16 %35 to i32
  %37 = and i32 4096, %36
  %38 = icmp ne i32 %37, 0
  br i1 %38, label %39, label %55

39:                                               ; preds = %34
  %40 = load i16, ptr %3, align 2, !tbaa !109
  %41 = zext i16 %40 to i32
  %42 = and i32 8192, %41
  %43 = icmp ne i32 %42, 0
  br i1 %43, label %44, label %55

44:                                               ; preds = %39
  %45 = load ptr, ptr %6, align 8, !tbaa !34
  %46 = getelementptr inbounds nuw %struct.prte_hwloc_print_buffers_t, ptr %45, i32 0, i32 0
  %47 = load ptr, ptr %6, align 8, !tbaa !34
  %48 = getelementptr inbounds nuw %struct.prte_hwloc_print_buffers_t, ptr %47, i32 0, i32 1
  %49 = load i32, ptr %48, align 8, !tbaa !122
  %50 = sext i32 %49 to i64
  %51 = getelementptr inbounds [16 x ptr], ptr %46, i64 0, i64 %50
  %52 = load ptr, ptr %51, align 8, !tbaa !26
  %53 = load ptr, ptr %5, align 8, !tbaa !26
  %54 = call i32 (ptr, i64, ptr, ...) @snprintf(ptr noundef %52, i64 noundef 50, ptr noundef @.str.43, ptr noundef %53) #10
  br label %100

55:                                               ; preds = %39, %34
  %56 = load i16, ptr %3, align 2, !tbaa !109
  %57 = zext i16 %56 to i32
  %58 = and i32 8192, %57
  %59 = icmp ne i32 %58, 0
  br i1 %59, label %60, label %71

60:                                               ; preds = %55
  %61 = load ptr, ptr %6, align 8, !tbaa !34
  %62 = getelementptr inbounds nuw %struct.prte_hwloc_print_buffers_t, ptr %61, i32 0, i32 0
  %63 = load ptr, ptr %6, align 8, !tbaa !34
  %64 = getelementptr inbounds nuw %struct.prte_hwloc_print_buffers_t, ptr %63, i32 0, i32 1
  %65 = load i32, ptr %64, align 8, !tbaa !122
  %66 = sext i32 %65 to i64
  %67 = getelementptr inbounds [16 x ptr], ptr %62, i64 0, i64 %66
  %68 = load ptr, ptr %67, align 8, !tbaa !26
  %69 = load ptr, ptr %5, align 8, !tbaa !26
  %70 = call i32 (ptr, i64, ptr, ...) @snprintf(ptr noundef %68, i64 noundef 50, ptr noundef @.str.44, ptr noundef %69) #10
  br label %99

71:                                               ; preds = %55
  %72 = load i16, ptr %3, align 2, !tbaa !109
  %73 = zext i16 %72 to i32
  %74 = and i32 4096, %73
  %75 = icmp ne i32 %74, 0
  br i1 %75, label %76, label %87

76:                                               ; preds = %71
  %77 = load ptr, ptr %6, align 8, !tbaa !34
  %78 = getelementptr inbounds nuw %struct.prte_hwloc_print_buffers_t, ptr %77, i32 0, i32 0
  %79 = load ptr, ptr %6, align 8, !tbaa !34
  %80 = getelementptr inbounds nuw %struct.prte_hwloc_print_buffers_t, ptr %79, i32 0, i32 1
  %81 = load i32, ptr %80, align 8, !tbaa !122
  %82 = sext i32 %81 to i64
  %83 = getelementptr inbounds [16 x ptr], ptr %78, i64 0, i64 %82
  %84 = load ptr, ptr %83, align 8, !tbaa !26
  %85 = load ptr, ptr %5, align 8, !tbaa !26
  %86 = call i32 (ptr, i64, ptr, ...) @snprintf(ptr noundef %84, i64 noundef 50, ptr noundef @.str.45, ptr noundef %85) #10
  br label %98

87:                                               ; preds = %71
  %88 = load ptr, ptr %6, align 8, !tbaa !34
  %89 = getelementptr inbounds nuw %struct.prte_hwloc_print_buffers_t, ptr %88, i32 0, i32 0
  %90 = load ptr, ptr %6, align 8, !tbaa !34
  %91 = getelementptr inbounds nuw %struct.prte_hwloc_print_buffers_t, ptr %90, i32 0, i32 1
  %92 = load i32, ptr %91, align 8, !tbaa !122
  %93 = sext i32 %92 to i64
  %94 = getelementptr inbounds [16 x ptr], ptr %89, i64 0, i64 %93
  %95 = load ptr, ptr %94, align 8, !tbaa !26
  %96 = load ptr, ptr %5, align 8, !tbaa !26
  %97 = call i32 (ptr, i64, ptr, ...) @snprintf(ptr noundef %95, i64 noundef 50, ptr noundef @.str.46, ptr noundef %96) #10
  br label %98

98:                                               ; preds = %87, %76
  br label %99

99:                                               ; preds = %98, %60
  br label %100

100:                                              ; preds = %99, %44
  %101 = load ptr, ptr %6, align 8, !tbaa !34
  %102 = getelementptr inbounds nuw %struct.prte_hwloc_print_buffers_t, ptr %101, i32 0, i32 0
  %103 = load ptr, ptr %6, align 8, !tbaa !34
  %104 = getelementptr inbounds nuw %struct.prte_hwloc_print_buffers_t, ptr %103, i32 0, i32 1
  %105 = load i32, ptr %104, align 8, !tbaa !122
  %106 = sext i32 %105 to i64
  %107 = getelementptr inbounds [16 x ptr], ptr %102, i64 0, i64 %106
  %108 = load ptr, ptr %107, align 8, !tbaa !26
  store ptr %108, ptr %4, align 8, !tbaa !26
  %109 = load ptr, ptr %6, align 8, !tbaa !34
  %110 = getelementptr inbounds nuw %struct.prte_hwloc_print_buffers_t, ptr %109, i32 0, i32 1
  %111 = load i32, ptr %110, align 8, !tbaa !122
  %112 = add nsw i32 %111, 1
  store i32 %112, ptr %110, align 8, !tbaa !122
  %113 = load ptr, ptr %4, align 8, !tbaa !26
  store ptr %113, ptr %2, align 8
  store i32 1, ptr %7, align 4
  br label %114

114:                                              ; preds = %100, %24
  call void @llvm.lifetime.end.p0(i64 8, ptr %6) #10
  call void @llvm.lifetime.end.p0(i64 8, ptr %5) #10
  call void @llvm.lifetime.end.p0(i64 8, ptr %4) #10
  %115 = load ptr, ptr %2, align 8
  ret ptr %115
}