; Function Attrs: nounwind uwtable
define ptr @prte_hwloc_base_print_binding(i16 noundef zeroext %0) local_unnamed_addr #0 {
  %2 = zext i16 %0 to i32
  %trunc = trunc i16 %0 to i8
  %switch.tableidx = add i8 %trunc, -1
  %3 = icmp ult i8 %switch.tableidx, 8
  br i1 %3, label %switch.lookup, label %5

switch.lookup:                                    ; preds = %1
  %4 = zext nneg i8 %switch.tableidx to i64
  %switch.gep = getelementptr inbounds nuw [8 x ptr], ptr @switch.table.prte_hwloc_base_print_binding, i64 0, i64 %4
  %switch.load = load ptr, ptr %switch.gep, align 8
  br label %5

5:                                                ; preds = %1, %switch.lookup
  %.024 = phi ptr [ %switch.load, %switch.lookup ], [ @.str.42, %1 ]
  %6 = tail call ptr @prte_hwloc_get_print_buffer() #18
  %7 = icmp eq ptr %6, null
  br i1 %7, label %8, label %10

8:                                                ; preds = %5
  %9 = load ptr, ptr @prte_hwloc_print_null, align 8, !tbaa !20
  br label %42

10:                                               ; preds = %5
  %11 = getelementptr inbounds nuw i8, ptr %6, i64 128
  %12 = load i32, ptr %11, align 8, !tbaa !101
  %13 = icmp eq i32 %12, 16
  br i1 %13, label %14, label %15

14:                                               ; preds = %10
  store i32 0, ptr %11, align 8, !tbaa !101
  br label %15

15:                                               ; preds = %14, %10
  %16 = phi i32 [ 0, %14 ], [ %12, %10 ]
  %17 = and i32 %2, 4096
  %.not = icmp eq i32 %17, 0
  %18 = and i32 %2, 12288
  %or.cond.not = icmp eq i32 %18, 12288
  br i1 %or.cond.not, label %19, label %24

19:                                               ; preds = %15
  %20 = sext i32 %16 to i64
  %21 = getelementptr inbounds [16 x ptr], ptr %6, i64 0, i64 %20
  %22 = load ptr, ptr %21, align 8, !tbaa !20
  %23 = tail call i32 (ptr, i64, ptr, ...) @snprintf(ptr noundef nonnull dereferenceable(1) %22, i64 noundef 50, ptr noundef nonnull @.str.43, ptr noundef nonnull %.024) #18
  br label %36

24:                                               ; preds = %15
  %25 = and i32 %2, 8192
  %.not26 = icmp eq i32 %25, 0
  %26 = sext i32 %16 to i64
  %27 = getelementptr inbounds [16 x ptr], ptr %6, i64 0, i64 %26
  %28 = load ptr, ptr %27, align 8, !tbaa !20
  br i1 %.not26, label %31, label %29

29:                                               ; preds = %24
  %30 = tail call i32 (ptr, i64, ptr, ...) @snprintf(ptr noundef nonnull dereferenceable(1) %28, i64 noundef 50, ptr noundef nonnull @.str.44, ptr noundef nonnull %.024) #18
  br label %36

31:                                               ; preds = %24
  br i1 %.not, label %34, label %32

32:                                               ; preds = %31
  %33 = tail call i32 (ptr, i64, ptr, ...) @snprintf(ptr noundef nonnull dereferenceable(1) %28, i64 noundef 50, ptr noundef nonnull @.str.45, ptr noundef nonnull %.024) #18
  br label %36

34:                                               ; preds = %31
  %35 = tail call i32 (ptr, i64, ptr, ...) @snprintf(ptr noundef nonnull dereferenceable(1) %28, i64 noundef 50, ptr noundef nonnull @.str.46, ptr noundef nonnull %.024) #18
  br label %36

36:                                               ; preds = %29, %34, %32, %19
  %37 = load i32, ptr %11, align 8, !tbaa !101
  %38 = sext i32 %37 to i64
  %39 = getelementptr inbounds [16 x ptr], ptr %6, i64 0, i64 %38
  %40 = load ptr, ptr %39, align 8, !tbaa !20
  %41 = add nsw i32 %37, 1
  store i32 %41, ptr %11, align 8, !tbaa !101
  br label %42

42:                                               ; preds = %36, %8
  %.0 = phi ptr [ %9, %8 ], [ %40, %36 ]
  ret ptr %.0
}